(dp0
I0
I-15
sI1
I-14
sI2
I-13
sI3
I-12
sI4
I-11
sI5
I-10
sI6
I-9
sI7
I-8
sI8
I-7
sI9
I-6
sI10
I-5
sI11
I-4
sI12
I-3
sI13
I-2
sI14
I-1
sI15
I0
sI16
I1
sI17
I2
sI18
I3
sI19
I4
sI20
I5
sI21
I6
sI22
I7
sI23
I8
sI24
I9
sI25
I10
sI26
I11
sI27
I12
sI28
I13
sI29
I14
sI30
I15
sI31
I16
sI32
I17
sI33
I18
sI34
I19
sI35
I20
sI36
I21
sI37
I22
sI38
I23
sI39
I24
sI40
I25
sI41
I26
sI42
I27
sI43
I28
sI44
I29
sI45
I30
sI46
I31
sI47
I32
sI48
I33
sI49
I34
sI50
I35
sI51
I36
sI52
I37
sI53
I38
sI54
I39
sI55
I40
sI56
I41
sI57
I42
sI58
I43
sI59
I44
sI60
I45
sI61
I46
sI62
I47
sI63
I48
sI64
I49
sI65
I50
sI66
I51
sI67
I52
sI68
I53
sI69
I54
sI70
I55
sI71
I56
sI72
I57
sI73
I58
sI74
I59
sI75
I60
sI76
I61
sI77
I62
sI78
I63
sI79
I64
sI80
I65
sI81
I66
sI82
I67
sI83
I68
sI84
I69
sI85
I70
sI86
I71
sI87
I72
sI88
I73
sI89
I74
sI90
I75
sI91
I76
sI92
I77
sI93
I78
sI94
I79
sI95
I80
sI96
I81
sI97
I82
sI98
I83
sI99
I84
sI100
I85
sI101
I86
sI102
I87
sI103
I88
sI104
I89
sI105
I90
sI106
I91
sI107
I92
sI108
I93
sI109
I94
sI110
I95
sI111
I96
sI112
I97
sI113
I98
sI114
I99
sI115
I100
sI116
I101
sI117
I102
sI118
I103
sI119
I104
sI120
I105
sI121
I106
sI122
I107
sI123
I108
sI124
I109
sI125
I110
sI126
I111
sI127
I112
sI128
I113
sI129
I114
sI130
I115
sI131
I116
sI132
I117
sI133
I118
sI134
I119
sI135
I120
sI136
I121
sI137
I122
sI138
I123
sI139
I124
sI140
I125
sI141
I126
sI142
I127
sI143
I128
sI144
I129
sI145
I130
sI146
I131
sI147
I132
sI148
I133
sI149
I134
sI150
I135
sI151
I136
sI152
I137
sI153
I138
sI154
I139
sI155
I140
sI156
I141
sI157
I142
sI158
I143
sI159
I144
sI160
I145
sI161
I146
sI162
I147
sI163
I148
sI164
I149
sI165
I150
sI166
I151
sI167
I152
sI168
I153
sI169
I154
sI170
I155
sI171
I156
sI172
I157
sI173
I158
sI174
I159
sI175
I160
sI176
I161
sI177
I162
sI178
I163
sI179
I164
sI180
I165
sI181
I166
sI182
I167
sI183
I168
sI184
I169
sI185
I170
sI186
I171
sI187
I172
sI188
I173
sI189
I174
sI190
I175
sI191
I176
sI192
I177
sI193
I178
sI194
I179
sI195
I180
sI196
I181
sI197
I182
sI198
I183
sI199
I184
sI200
I185
sI201
I186
sI202
I187
sI203
I188
sI204
I189
sI205
I190
sI206
I191
sI207
I192
sI208
I193
sI209
I194
sI210
I195
sI211
I196
sI212
I197
sI213
I198
sI214
I199
sI215
I200
sI216
I201
sI217
I202
sI218
I203
sI219
I204
sI220
I205
sI221
I206
sI222
I207
sI223
I208
sI224
I209
sI225
I210
sI226
I211
sI227
I212
sI228
I213
sI229
I214
sI230
I215
sI231
I216
sI232
I217
sI233
I218
sI234
I219
sI235
I220
sI236
I221
sI237
I222
sI238
I223
sI239
I224
sI240
I225
sI241
I226
sI242
I227
sI243
I228
sI244
I229
sI245
I230
sI246
I231
sI247
I232
sI248
I233
sI249
I234
sI250
I235
sI251
I236
sI252
I237
sI253
I238
sI254
I239
sI255
I240
sI256
I241
sI257
I242
sI258
I243
sI259
I244
sI260
I245
sI261
I246
sI262
I247
sI263
I248
sI264
I249
sI265
I250
sI266
I251
sI267
I252
sI268
I253
sI269
I254
sI270
I255
sI271
I256
sI272
I257
sI273
I258
sI274
I259
sI275
I260
sI276
I261
sI277
I262
sI278
I263
sI279
I264
sI280
I265
sI281
I266
sI282
I267
sI283
I268
sI284
I269
sI285
I270
sI286
I271
sI287
I272
sI288
I273
sI289
I274
sI290
I275
sI291
I276
sI292
I277
sI293
I278
sI294
I279
sI295
I280
sI296
I281
sI297
I282
sI298
I283
sI299
I284
sI300
I285
sI301
I286
sI302
I287
sI303
I288
sI304
I289
sI305
I290
sI306
I291
sI307
I292
sI308
I293
sI309
I294
sI310
I295
sI311
I296
sI312
I297
sI313
I298
sI314
I299
sI315
I300
sI316
I301
sI317
I302
sI318
I303
sI319
I304
sI320
I305
sI321
I306
sI322
I307
sI323
I308
sI324
I309
sI325
I310
sI326
I311
sI327
I312
sI328
I313
sI329
I314
sI330
I315
sI331
I316
sI332
I317
sI333
I318
sI334
I319
sI335
I320
sI336
I321
sI337
I322
sI338
I323
sI339
I324
sI340
I325
sI341
I326
sI342
I327
sI343
I328
sI344
I329
sI345
I330
sI346
I331
sI347
I332
sI348
I333
sI349
I334
sI350
I335
sI351
I336
sI352
I337
sI353
I338
sI354
I339
sI355
I340
sI356
I341
sI357
I342
sI358
I343
sI359
I344
sI360
I345
sI361
I346
sI362
I347
sI363
I348
sI364
I349
sI365
I350
sI366
I351
sI367
I352
sI368
I353
sI369
I354
sI370
I355
sI371
I356
sI372
I357
sI373
I358
sI374
I359
sI375
I360
sI376
I361
sI377
I362
sI378
I363
sI379
I364
sI380
I365
sI381
I366
sI382
I367
sI383
I368
sI384
I369
sI385
I370
sI386
I371
sI387
I372
sI388
I373
sI389
I374
sI390
I375
sI391
I376
sI392
I377
sI393
I378
sI394
I379
sI395
I380
sI396
I381
sI397
I382
sI398
I383
sI399
I384
sI400
I385
sI401
I386
sI402
I387
sI403
I388
sI404
I389
sI405
I390
sI406
I391
sI407
I392
sI408
I393
sI409
I394
sI410
I395
sI411
I396
sI412
I397
sI413
I398
sI414
I399
sI415
I400
sI416
I401
sI417
I402
sI418
I403
sI419
I404
sI420
I405
sI421
I406
sI422
I407
sI423
I408
sI424
I409
sI425
I410
sI426
I411
sI427
I412
sI428
I413
sI429
I414
sI430
I415
sI431
I416
sI432
I417
sI433
I418
sI434
I419
sI435
I420
sI436
I421
sI437
I422
sI438
I423
sI439
I424
sI440
I425
sI441
I426
sI442
I427
sI443
I428
sI444
I429
sI445
I430
sI446
I431
sI447
I432
sI448
I433
sI449
I434
sI450
I435
sI451
I436
sI452
I437
sI453
I438
sI454
I439
sI455
I440
sI456
I441
sI457
I442
sI458
I443
sI459
I444
sI460
I445
sI461
I446
sI462
I447
sI463
I448
sI464
I449
sI465
I450
sI466
I451
sI467
I452
sI468
I453
sI469
I454
sI470
I455
sI471
I456
sI472
I457
sI473
I458
sI474
I459
sI475
I460
sI476
I461
sI477
I462
sI478
I463
sI479
I464
sI480
I465
sI481
I466
sI482
I467
sI483
I468
sI484
I469
sI485
I470
sI486
I471
sI487
I472
sI488
I473
sI489
I474
sI490
I475
sI491
I476
sI492
I477
sI493
I478
sI494
I479
sI495
I480
sI496
I481
sI497
I482
sI498
I483
sI499
I484
sI500
I485
sI501
I486
sI502
I487
sI503
I488
sI504
I489
sI505
I490
sI506
I491
sI507
I492
sI508
I493
sI509
I494
sI510
I495
sI511
I496
sI512
I497
sI513
I498
sI514
I499
sI515
I500
sI516
I501
sI517
I502
sI518
I503
sI519
I504
sI520
I505
sI521
I506
sI522
I507
sI523
I508
sI524
I509
sI525
I510
sI526
I511
sI527
I512
sI528
I513
sI529
I514
sI530
I515
sI531
I516
sI532
I517
sI533
I518
sI534
I519
sI535
I520
sI536
I521
sI537
I522
sI538
I523
sI539
I524
sI540
I525
sI541
I526
sI542
I527
sI543
I528
sI544
I529
sI545
I530
sI546
I531
sI547
I532
sI548
I533
sI549
I534
sI550
I535
sI551
I536
sI552
I537
sI553
I538
sI554
I539
sI555
I540
sI556
I541
sI557
I542
sI558
I543
sI559
I544
sI560
I545
sI561
I546
sI562
I547
sI563
I548
sI564
I549
sI565
I550
s.